target datalayout = "e-m:e-p270:32:32-p271:32:32-p272:64:64-i64:64-i128:128-f80:128-n8:16:32:64-S128"
target triple = "x86_64-pc-linux-gnu"

%struct._zend_executor_globals = type { %struct._zval_struct, %struct._zval_struct, [32 x ptr], ptr, ptr, %struct._zend_array, %struct._zend_array, ptr, i32, i32, ptr, ptr, ptr, ptr, ptr, ptr, i64, ptr, ptr, i32, i32, i64, i32, i32, i32, i8, i8, %struct.zend_atomic_bool_s, %struct.zend_atomic_bool_s, ptr, i64, ptr, ptr, %struct._zend_array, %struct._zend_array, i32, i8, %struct._zval_struct, %struct._zval_struct, %struct._zend_stack, %struct._zend_stack, %struct._zend_stack, ptr, i32, i32, i64, ptr, ptr, ptr, %struct._zend_objects_store, ptr, ptr, ptr, [3 x %struct._zend_op], ptr, i8, i8, i64, i32, i32, ptr, [16 x %struct._HashTableIterator], ptr, %union._zend_function, %struct._zend_op, %struct._zend_array, i64, %struct.zend_get_gc_buffer, ptr, ptr, ptr, i64, i8, i32, ptr, ptr, i64, %struct._zend_call_stack, i64, i64, [6 x ptr] }
%struct.zend_atomic_bool_s = type { i8 }
%struct._zval_struct = type { %union._zend_value, %union.anon, %union.anon.2 }
%union._zend_value = type { i64 }
%union.anon = type { i32 }
%union.anon.2 = type { i32 }
%struct._zend_stack = type { i32, i32, i32, ptr }
%struct._zend_objects_store = type { ptr, i32, i32, i32 }
%struct._HashTableIterator = type { ptr, i32, i32 }
%union._zend_function = type { %struct._zend_op_array }
%struct._zend_op_array = type { i8, [3 x i8], i32, ptr, ptr, ptr, i32, i32, ptr, ptr, ptr, ptr, i32, i32, i32, i32, ptr, ptr, ptr, ptr, ptr, i32, i32, ptr, ptr, ptr, i32, i32, i32, i32, ptr, ptr, [6 x ptr] }
%struct._zend_op = type { ptr, %union._znode_op, %union._znode_op, %union._znode_op, i32, i32, i8, i8, i8, i8 }
%union._znode_op = type { i32 }
%struct._zend_array = type { %struct._zend_refcounted_h, %union.anon.4, i32, %union.anon.6, i32, i32, i32, i32, i64, ptr }
%struct._zend_refcounted_h = type { i32, %union.anon.3 }
%union.anon.3 = type { i32 }
%union.anon.4 = type { i32 }
%union.anon.6 = type { ptr }
%struct.zend_get_gc_buffer = type { ptr, ptr, ptr }
%struct._zend_call_stack = type { ptr, i64 }
%struct._zend_execute_data = type { ptr, ptr, ptr, ptr, %struct._zval_struct, ptr, ptr, ptr, ptr }

@executor_globals = external global %struct._zend_executor_globals, align 8
@.str.4 = private unnamed_addr constant [49 x i8] c"must be less than or equal to argument #2 ($max)\00", align 1

; Function Attrs: nounwind uwtable
define internal i32 @php_random_int_throw(i64 noundef %0, i64 noundef %1, ptr noundef %2) #0 {
  %4 = alloca i64, align 8
  %5 = alloca i64, align 8
  %6 = alloca ptr, align 8
  store i64 %0, ptr %4, align 8
  store i64 %1, ptr %5, align 8
  store ptr %2, ptr %6, align 8
  %7 = load i64, ptr %4, align 8
  %8 = load i64, ptr %5, align 8
  %9 = load ptr, ptr %6, align 8
  %10 = call i32 @php_random_int(i64 noundef %7, i64 noundef %8, ptr noundef %9, i1 noundef zeroext true)
  ret i32 %10
}

; Function Attrs: nounwind uwtable
define hidden void @zif_random_int(ptr noundef %0, ptr noundef %1) #0 {
  %3 = alloca ptr, align 8
  %4 = alloca ptr, align 8
  %5 = alloca ptr, align 8
  %6 = alloca ptr, align 8
  %7 = alloca i1, align 1
  %8 = alloca ptr, align 8
  %9 = alloca ptr, align 8
  %10 = alloca ptr, align 8
  %11 = alloca i8, align 1
  %12 = alloca i32, align 4
  %13 = alloca i8, align 1
  %14 = alloca i1, align 1
  %15 = alloca ptr, align 8
  %16 = alloca ptr, align 8
  %17 = alloca ptr, align 8
  %18 = alloca i8, align 1
  %19 = alloca i32, align 4
  %20 = alloca i8, align 1
  %21 = alloca ptr, align 8
  %22 = alloca ptr, align 8
  %23 = alloca ptr, align 8
  %24 = alloca i8, align 1
  %25 = alloca i32, align 4
  %26 = alloca ptr, align 8
  %27 = alloca ptr, align 8
  %28 = alloca ptr, align 8
  %29 = alloca i8, align 1
  %30 = alloca i32, align 4
  %31 = alloca ptr, align 8
  %32 = alloca ptr, align 8
  %33 = alloca i64, align 8
  %34 = alloca i64, align 8
  %35 = alloca i64, align 8
  %36 = alloca i32, align 4
  %37 = alloca i32, align 4
  %38 = alloca i32, align 4
  %39 = alloca i32, align 4
  %40 = alloca i32, align 4
  %41 = alloca ptr, align 8
  %42 = alloca ptr, align 8
  %43 = alloca i32, align 4
  %44 = alloca ptr, align 8
  %45 = alloca i8, align 1
  %46 = alloca i8, align 1
  %47 = alloca i32, align 4
  %48 = alloca ptr, align 8
  store ptr %0, ptr %31, align 8
  store ptr %1, ptr %32, align 8
  br label %49

49:                                               ; preds = %2
  store i32 0, ptr %36, align 4
  store i32 2, ptr %37, align 4
  store i32 2, ptr %38, align 4
  %50 = load ptr, ptr %31, align 8
  %51 = getelementptr inbounds %struct._zend_execute_data, ptr %50, i32 0, i32 4
  %52 = getelementptr inbounds %struct._zval_struct, ptr %51, i32 0, i32 2
  %53 = load i32, ptr %52, align 4
  store i32 %53, ptr %39, align 4
  store i32 0, ptr %40, align 4
  store ptr null, ptr %42, align 8
  store i32 0, ptr %43, align 4
  store ptr null, ptr %44, align 8
  store i8 0, ptr %45, align 1
  store i8 0, ptr %46, align 1
  store i32 0, ptr %47, align 4
  br label %54

54:                                               ; preds = %49
  %55 = load i32, ptr %39, align 4
  %56 = load i32, ptr %37, align 4
  %57 = icmp ult i32 %55, %56
  %58 = xor i1 %57, true
  %59 = xor i1 %58, true
  %60 = zext i1 %59 to i32
  %61 = sext i32 %60 to i64
  %62 = icmp ne i64 %61, 0
  br i1 %62, label %72, label %63

63:                                               ; preds = %54
  %64 = load i32, ptr %39, align 4
  %65 = load i32, ptr %38, align 4
  %66 = icmp ugt i32 %64, %65
  %67 = xor i1 %66, true
  %68 = xor i1 %67, true
  %69 = zext i1 %68 to i32
  %70 = sext i32 %69 to i64
  %71 = icmp ne i64 %70, 0
  br i1 %71, label %72, label %75

72:                                               ; preds = %63, %54
  %73 = load i32, ptr %37, align 4
  %74 = load i32, ptr %38, align 4
  call void @zend_wrong_parameters_count_error(i32 noundef %73, i32 noundef %74)
  store i32 1, ptr %47, align 4
  br label %286

75:                                               ; preds = %63
  %76 = load ptr, ptr %31, align 8
  %77 = getelementptr inbounds %struct._zval_struct, ptr %76, i64 4
  store ptr %77, ptr %41, align 8
  %78 = load i32, ptr %40, align 4
  %79 = add i32 %78, 1
  store i32 %79, ptr %40, align 4
  %80 = load i32, ptr %40, align 4
  %81 = load i32, ptr %37, align 4
  %82 = icmp ule i32 %80, %81
  br i1 %82, label %88, label %83

83:                                               ; preds = %75
  %84 = load i8, ptr %46, align 1
  %85 = trunc i8 %84 to i1
  %86 = zext i1 %85 to i32
  %87 = icmp eq i32 %86, 1
  br label %88

88:                                               ; preds = %83, %75
  %89 = phi i1 [ true, %75 ], [ %87, %83 ]
  call void @llvm.assume(i1 %89)
  %90 = load i32, ptr %40, align 4
  %91 = load i32, ptr %37, align 4
  %92 = icmp ugt i32 %90, %91
  br i1 %92, label %98, label %93

93:                                               ; preds = %88
  %94 = load i8, ptr %46, align 1
  %95 = trunc i8 %94 to i1
  %96 = zext i1 %95 to i32
  %97 = icmp eq i32 %96, 0
  br label %98

98:                                               ; preds = %93, %88
  %99 = phi i1 [ true, %88 ], [ %97, %93 ]
  call void @llvm.assume(i1 %99)
  %100 = load i8, ptr %46, align 1
  %101 = trunc i8 %100 to i1
  br i1 %101, label %102, label %113

102:                                              ; preds = %98
  %103 = load i32, ptr %40, align 4
  %104 = load i32, ptr %39, align 4
  %105 = icmp ugt i32 %103, %104
  %106 = xor i1 %105, true
  %107 = xor i1 %106, true
  %108 = zext i1 %107 to i32
  %109 = sext i32 %108 to i64
  %110 = icmp ne i64 %109, 0
  br i1 %110, label %111, label %112

111:                                              ; preds = %102
  br label %286

112:                                              ; preds = %102
  br label %113

113:                                              ; preds = %112, %98
  %114 = load ptr, ptr %41, align 8
  %115 = getelementptr inbounds %struct._zval_struct, ptr %114, i32 1
  store ptr %115, ptr %41, align 8
  %116 = load ptr, ptr %41, align 8
  store ptr %116, ptr %42, align 8
  %117 = load ptr, ptr %42, align 8
  %118 = load i32, ptr %40, align 4
  store ptr %117, ptr %21, align 8
  store ptr %33, ptr %22, align 8
  store ptr %45, ptr %23, align 8
  store i8 0, ptr %24, align 1
  store i32 %118, ptr %25, align 4
  %119 = load ptr, ptr %21, align 8
  %120 = load ptr, ptr %22, align 8
  %121 = load ptr, ptr %23, align 8
  %122 = load i8, ptr %24, align 1
  %123 = trunc i8 %122 to i1
  %124 = load i32, ptr %25, align 4
  store ptr %119, ptr %15, align 8
  store ptr %120, ptr %16, align 8
  store ptr %121, ptr %17, align 8
  %125 = zext i1 %123 to i8
  store i8 %125, ptr %18, align 1
  store i32 %124, ptr %19, align 4
  store i8 0, ptr %20, align 1
  %126 = load i8, ptr %18, align 1
  %127 = trunc i8 %126 to i1
  br i1 %127, label %128, label %130

128:                                              ; preds = %113
  %129 = load ptr, ptr %17, align 8
  store i8 0, ptr %129, align 1
  br label %130

130:                                              ; preds = %128, %113
  %131 = load ptr, ptr %15, align 8
  store ptr %131, ptr %3, align 8
  %132 = load ptr, ptr %3, align 8
  %133 = getelementptr inbounds %struct._zval_struct, ptr %132, i32 0, i32 1
  %134 = load i8, ptr %133, align 8
  %135 = zext i8 %134 to i32
  %136 = icmp eq i32 %135, 4
  br i1 %136, label %137, label %141

137:                                              ; preds = %130
  %138 = load ptr, ptr %15, align 8
  %139 = load i64, ptr %138, align 8
  %140 = load ptr, ptr %16, align 8
  store i64 %139, ptr %140, align 8
  br label %167

141:                                              ; preds = %130
  %142 = load i8, ptr %18, align 1
  %143 = trunc i8 %142 to i1
  br i1 %143, label %144, label %154

144:                                              ; preds = %141
  %145 = load ptr, ptr %15, align 8
  store ptr %145, ptr %4, align 8
  %146 = load ptr, ptr %4, align 8
  %147 = getelementptr inbounds %struct._zval_struct, ptr %146, i32 0, i32 1
  %148 = load i8, ptr %147, align 8
  %149 = zext i8 %148 to i32
  %150 = icmp eq i32 %149, 1
  br i1 %150, label %151, label %154

151:                                              ; preds = %144
  %152 = load ptr, ptr %17, align 8
  store i8 1, ptr %152, align 1
  %153 = load ptr, ptr %16, align 8
  store i64 0, ptr %153, align 8
  br label %167

154:                                              ; preds = %144, %141
  %155 = load i8, ptr %20, align 1
  %156 = trunc i8 %155 to i1
  br i1 %156, label %157, label %162

157:                                              ; preds = %154
  %158 = load ptr, ptr %15, align 8
  %159 = load ptr, ptr %16, align 8
  %160 = load i32, ptr %19, align 4
  %161 = call zeroext i1 @zend_flf_parse_arg_long_slow(ptr noundef %158, ptr noundef %159, i32 noundef %160) #10
  store i1 %161, ptr %14, align 1
  br label %168

162:                                              ; preds = %154
  %163 = load ptr, ptr %15, align 8
  %164 = load ptr, ptr %16, align 8
  %165 = load i32, ptr %19, align 4
  %166 = call zeroext i1 @zend_parse_arg_long_slow(ptr noundef %163, ptr noundef %164, i32 noundef %165) #10
  store i1 %166, ptr %14, align 1
  br label %168

167:                                              ; preds = %151, %137
  store i1 true, ptr %14, align 1
  br label %168

168:                                              ; preds = %167, %162, %157
  %169 = load i1, ptr %14, align 1
  %170 = xor i1 %169, true
  %171 = xor i1 %170, true
  %172 = xor i1 %171, true
  %173 = zext i1 %172 to i32
  %174 = sext i32 %173 to i64
  %175 = icmp ne i64 %174, 0
  br i1 %175, label %176, label %177

176:                                              ; preds = %168
  store i32 0, ptr %43, align 4
  store i32 9, ptr %47, align 4
  br label %286

177:                                              ; preds = %168
  %178 = load i32, ptr %40, align 4
  %179 = add i32 %178, 1
  store i32 %179, ptr %40, align 4
  %180 = load i32, ptr %40, align 4
  %181 = load i32, ptr %37, align 4
  %182 = icmp ule i32 %180, %181
  br i1 %182, label %188, label %183

183:                                              ; preds = %177
  %184 = load i8, ptr %46, align 1
  %185 = trunc i8 %184 to i1
  %186 = zext i1 %185 to i32
  %187 = icmp eq i32 %186, 1
  br label %188

188:                                              ; preds = %183, %177
  %189 = phi i1 [ true, %177 ], [ %187, %183 ]
  call void @llvm.assume(i1 %189)
  %190 = load i32, ptr %40, align 4
  %191 = load i32, ptr %37, align 4
  %192 = icmp ugt i32 %190, %191
  br i1 %192, label %198, label %193

193:                                              ; preds = %188
  %194 = load i8, ptr %46, align 1
  %195 = trunc i8 %194 to i1
  %196 = zext i1 %195 to i32
  %197 = icmp eq i32 %196, 0
  br label %198

198:                                              ; preds = %193, %188
  %199 = phi i1 [ true, %188 ], [ %197, %193 ]
  call void @llvm.assume(i1 %199)
  %200 = load i8, ptr %46, align 1
  %201 = trunc i8 %200 to i1
  br i1 %201, label %202, label %213

202:                                              ; preds = %198
  %203 = load i32, ptr %40, align 4
  %204 = load i32, ptr %39, align 4
  %205 = icmp ugt i32 %203, %204
  %206 = xor i1 %205, true
  %207 = xor i1 %206, true
  %208 = zext i1 %207 to i32
  %209 = sext i32 %208 to i64
  %210 = icmp ne i64 %209, 0
  br i1 %210, label %211, label %212

211:                                              ; preds = %202
  br label %286

212:                                              ; preds = %202
  br label %213

213:                                              ; preds = %212, %198
  %214 = load ptr, ptr %41, align 8
  %215 = getelementptr inbounds %struct._zval_struct, ptr %214, i32 1
  store ptr %215, ptr %41, align 8
  %216 = load ptr, ptr %41, align 8
  store ptr %216, ptr %42, align 8
  %217 = load ptr, ptr %42, align 8
  %218 = load i32, ptr %40, align 4
  store ptr %217, ptr %26, align 8
  store ptr %34, ptr %27, align 8
  store ptr %45, ptr %28, align 8
  store i8 0, ptr %29, align 1
  store i32 %218, ptr %30, align 4
  %219 = load ptr, ptr %26, align 8
  %220 = load ptr, ptr %27, align 8
  %221 = load ptr, ptr %28, align 8
  %222 = load i8, ptr %29, align 1
  %223 = trunc i8 %222 to i1
  %224 = load i32, ptr %30, align 4
  store ptr %219, ptr %8, align 8
  store ptr %220, ptr %9, align 8
  store ptr %221, ptr %10, align 8
  %225 = zext i1 %223 to i8
  store i8 %225, ptr %11, align 1
  store i32 %224, ptr %12, align 4
  store i8 0, ptr %13, align 1
  %226 = load i8, ptr %11, align 1
  %227 = trunc i8 %226 to i1
  br i1 %227, label %228, label %230

228:                                              ; preds = %213
  %229 = load ptr, ptr %10, align 8
  store i8 0, ptr %229, align 1
  br label %230

230:                                              ; preds = %228, %213
  %231 = load ptr, ptr %8, align 8
  store ptr %231, ptr %5, align 8
  %232 = load ptr, ptr %5, align 8
  %233 = getelementptr inbounds %struct._zval_struct, ptr %232, i32 0, i32 1
  %234 = load i8, ptr %233, align 8
  %235 = zext i8 %234 to i32
  %236 = icmp eq i32 %235, 4
  br i1 %236, label %237, label %241

237:                                              ; preds = %230
  %238 = load ptr, ptr %8, align 8
  %239 = load i64, ptr %238, align 8
  %240 = load ptr, ptr %9, align 8
  store i64 %239, ptr %240, align 8
  br label %267

241:                                              ; preds = %230
  %242 = load i8, ptr %11, align 1
  %243 = trunc i8 %242 to i1
  br i1 %243, label %244, label %254

244:                                              ; preds = %241
  %245 = load ptr, ptr %8, align 8
  store ptr %245, ptr %6, align 8
  %246 = load ptr, ptr %6, align 8
  %247 = getelementptr inbounds %struct._zval_struct, ptr %246, i32 0, i32 1
  %248 = load i8, ptr %247, align 8
  %249 = zext i8 %248 to i32
  %250 = icmp eq i32 %249, 1
  br i1 %250, label %251, label %254

251:                                              ; preds = %244
  %252 = load ptr, ptr %10, align 8
  store i8 1, ptr %252, align 1
  %253 = load ptr, ptr %9, align 8
  store i64 0, ptr %253, align 8
  br label %267

254:                                              ; preds = %244, %241
  %255 = load i8, ptr %13, align 1
  %256 = trunc i8 %255 to i1
  br i1 %256, label %257, label %262

257:                                              ; preds = %254
  %258 = load ptr, ptr %8, align 8
  %259 = load ptr, ptr %9, align 8
  %260 = load i32, ptr %12, align 4
  %261 = call zeroext i1 @zend_flf_parse_arg_long_slow(ptr noundef %258, ptr noundef %259, i32 noundef %260) #10
  store i1 %261, ptr %7, align 1
  br label %268

262:                                              ; preds = %254
  %263 = load ptr, ptr %8, align 8
  %264 = load ptr, ptr %9, align 8
  %265 = load i32, ptr %12, align 4
  %266 = call zeroext i1 @zend_parse_arg_long_slow(ptr noundef %263, ptr noundef %264, i32 noundef %265) #10
  store i1 %266, ptr %7, align 1
  br label %268

267:                                              ; preds = %251, %237
  store i1 true, ptr %7, align 1
  br label %268

268:                                              ; preds = %267, %262, %257
  %269 = load i1, ptr %7, align 1
  %270 = xor i1 %269, true
  %271 = xor i1 %270, true
  %272 = xor i1 %271, true
  %273 = zext i1 %272 to i32
  %274 = sext i32 %273 to i64
  %275 = icmp ne i64 %274, 0
  br i1 %275, label %276, label %277

276:                                              ; preds = %268
  store i32 0, ptr %43, align 4
  store i32 9, ptr %47, align 4
  br label %286

277:                                              ; preds = %268
  %278 = load i32, ptr %40, align 4
  %279 = load i32, ptr %38, align 4
  %280 = icmp eq i32 %278, %279
  br i1 %280, label %284, label %281

281:                                              ; preds = %277
  %282 = load i32, ptr %38, align 4
  %283 = icmp eq i32 %282, -1
  br label %284

284:                                              ; preds = %281, %277
  %285 = phi i1 [ true, %277 ], [ %283, %281 ]
  call void @llvm.assume(i1 %285)
  br label %286

286:                                              ; preds = %284, %276, %211, %176, %111, %72
  %287 = load i32, ptr %47, align 4
  %288 = icmp ne i32 %287, 0
  %289 = xor i1 %288, true
  %290 = xor i1 %289, true
  %291 = zext i1 %290 to i32
  %292 = sext i32 %291 to i64
  %293 = icmp ne i64 %292, 0
  br i1 %293, label %294, label %300

294:                                              ; preds = %286
  %295 = load i32, ptr %47, align 4
  %296 = load i32, ptr %40, align 4
  %297 = load ptr, ptr %44, align 8
  %298 = load i32, ptr %43, align 4
  %299 = load ptr, ptr %42, align 8
  call void @zend_wrong_parameter_error(i32 noundef %295, i32 noundef %296, ptr noundef %297, i32 noundef %298, ptr noundef %299)
  br label %330

300:                                              ; preds = %286
  br label %301

301:                                              ; preds = %300
  %302 = load i64, ptr %33, align 8
  %303 = load i64, ptr %34, align 8
  %304 = icmp sgt i64 %302, %303
  br i1 %304, label %305, label %310

305:                                              ; preds = %301
  call void (i32, ptr, ...) @zend_argument_value_error(i32 noundef 1, ptr noundef @.str.4)
  br label %306

306:                                              ; preds = %305
  %307 = load ptr, ptr getelementptr inbounds (%struct._zend_executor_globals, ptr @executor_globals, i32 0, i32 50), align 8
  %308 = icmp ne ptr %307, null
  call void @llvm.assume(i1 %308)
  br label %330

309:                                              ; No predecessors!
  br label %310

310:                                              ; preds = %309, %301
  %311 = load i64, ptr %33, align 8
  %312 = load i64, ptr %34, align 8
  %313 = call i32 @php_random_int_throw(i64 noundef %311, i64 noundef %312, ptr noundef %35)
  %314 = icmp eq i32 %313, -1
  br i1 %314, label %315, label %320

315:                                              ; preds = %310
  br label %316

316:                                              ; preds = %315
  %317 = load ptr, ptr getelementptr inbounds (%struct._zend_executor_globals, ptr @executor_globals, i32 0, i32 50), align 8
  %318 = icmp ne ptr %317, null
  call void @llvm.assume(i1 %318)
  br label %330

319:                                              ; No predecessors!
  br label %320

320:                                              ; preds = %319, %310
  br label %321

321:                                              ; preds = %320
  br label %322

322:                                              ; preds = %321
  %323 = load ptr, ptr %32, align 8
  store ptr %323, ptr %48, align 8
  %324 = load i64, ptr %35, align 8
  %325 = load ptr, ptr %48, align 8
  %326 = getelementptr inbounds %struct._zval_struct, ptr %325, i32 0, i32 0
  store i64 %324, ptr %326, align 8
  %327 = load ptr, ptr %48, align 8
  %328 = getelementptr inbounds %struct._zval_struct, ptr %327, i32 0, i32 1
  store i32 4, ptr %328, align 8
  br label %329

329:                                              ; preds = %322
  br label %330

330:                                              ; preds = %329, %316, %306, %294
  ret void
}