; Function Attrs: nounwind uwtable
define hidden void @zif_random_int(ptr noundef %0, ptr nocapture noundef writeonly %1) #0 {
  %3 = alloca i64, align 8
  %4 = alloca i64, align 8
  %5 = alloca i64, align 8
  %6 = getelementptr inbounds i8, ptr %0, i64 44
  %7 = load i32, ptr %6, align 4
  %.not = icmp eq i32 %7, 2
  br i1 %.not, label %9, label %8

8:                                                ; preds = %2
  tail call void @zend_wrong_parameters_count_error(i32 noundef 2, i32 noundef 2) #13
  br label %.thread115

9:                                                ; preds = %2
  %10 = getelementptr inbounds i8, ptr %0, i64 80
  %11 = getelementptr inbounds i8, ptr %0, i64 88
  %12 = load i8, ptr %11, align 8
  %13 = icmp eq i8 %12, 4
  br i1 %13, label %.critedge, label %15

.critedge:                                        ; preds = %9
  %14 = load i64, ptr %10, align 8
  store i64 %14, ptr %3, align 8
  br label %17

15:                                               ; preds = %9
  %16 = call zeroext i1 @zend_parse_arg_long_slow(ptr noundef nonnull %10, ptr noundef nonnull %3, i32 noundef 1) #13
  br i1 %16, label %17, label %.thread115

17:                                               ; preds = %15, %.critedge
  %18 = getelementptr inbounds i8, ptr %0, i64 96
  %19 = getelementptr inbounds i8, ptr %0, i64 104
  %20 = load i8, ptr %19, align 8
  %21 = icmp eq i8 %20, 4
  br i1 %21, label %.thread111, label %23

.thread111:                                       ; preds = %17
  %22 = load i64, ptr %18, align 8
  store i64 %22, ptr %4, align 8
  br label %.thread129

23:                                               ; preds = %17
  %24 = call zeroext i1 @zend_parse_arg_long_slow(ptr noundef nonnull %18, ptr noundef nonnull %4, i32 noundef 2) #13
  %.fr = freeze i1 %24
  br i1 %.fr, label %..thread129_crit_edge, label %.thread115

..thread129_crit_edge:                            ; preds = %23
  %.pre = load i64, ptr %4, align 8
  br label %.thread129

.thread115:                                       ; preds = %15, %8, %23
  %.095122 = phi i32 [ 9, %23 ], [ 9, %15 ], [ 1, %8 ]
  %.097121 = phi i32 [ 2, %23 ], [ 1, %15 ], [ 0, %8 ]
  %.099120 = phi ptr [ %18, %23 ], [ %10, %15 ], [ null, %8 ]
  call void @zend_wrong_parameter_error(i32 noundef %.095122, i32 noundef %.097121, ptr noundef null, i32 noundef 0, ptr noundef %.099120) #13
  br label %40

.thread129:                                       ; preds = %..thread129_crit_edge, %.thread111
  %25 = phi i64 [ %.pre, %..thread129_crit_edge ], [ %22, %.thread111 ]
  %26 = load i64, ptr %3, align 8
  %27 = icmp sgt i64 %26, %25
  br i1 %27, label %28, label %31

28:                                               ; preds = %.thread129
  call void (i32, ptr, ...) @zend_argument_value_error(i32 noundef 1, ptr noundef nonnull @.str.4) #13
  %29 = load ptr, ptr getelementptr inbounds (%struct._zend_executor_globals, ptr @executor_globals, i64 0, i32 50), align 8
  %30 = icmp ne ptr %29, null
  call void @llvm.assume(i1 %30)
  br label %40

31:                                               ; preds = %.thread129
  %32 = call i32 @php_random_int(i64 noundef %26, i64 noundef %25, ptr noundef nonnull %5, i1 noundef zeroext true) #13
  %33 = icmp eq i32 %32, -1
  br i1 %33, label %34, label %37

34:                                               ; preds = %31
  %35 = load ptr, ptr getelementptr inbounds (%struct._zend_executor_globals, ptr @executor_globals, i64 0, i32 50), align 8
  %36 = icmp ne ptr %35, null
  call void @llvm.assume(i1 %36)
  br label %40

37:                                               ; preds = %31
  %38 = load i64, ptr %5, align 8
  store i64 %38, ptr %1, align 8
  %39 = getelementptr inbounds i8, ptr %1, i64 8
  store i32 4, ptr %39, align 8
  br label %40

40:                                               ; preds = %37, %34, %28, %.thread115
  ret void
}